; Function Attrs: mustprogress nofree norecurse nosync nounwind willreturn memory(argmem: read) uwtable
define noundef zeroext i1 @_Z19ir_coulomb_switchedPK10t_inputrec(ptr noundef readonly captures(none) %0) local_unnamed_addr #15 {
  %2 = getelementptr inbounds nuw i8, ptr %0, i64 364
  %3 = load i32, ptr %2, align 4, !tbaa !258
  %switch.tableidx = add i32 %3, -7
  %4 = icmp ult i32 %switch.tableidx, 9
  br i1 %4, label %switch.hole_check, label %5

5:                                                ; preds = %switch.hole_check, %1
  %6 = getelementptr inbounds nuw i8, ptr %0, i64 368
  %7 = load i32, ptr %6, align 8, !tbaa !259
  %8 = icmp eq i32 %7, 3
  %9 = icmp eq i32 %7, 5
  %spec.select = or i1 %8, %9
  br label %switch.lookup

switch.hole_check:                                ; preds = %1
  %switch.maskindex = trunc nuw i32 %switch.tableidx to i16
  %switch.shifted = lshr i16 387, %switch.maskindex
  %switch.lobit = trunc i16 %switch.shifted to i1
  br i1 %switch.lobit, label %switch.lookup, label %5

switch.lookup:                                    ; preds = %switch.hole_check, %5
  %10 = phi i1 [ %spec.select, %5 ], [ true, %switch.hole_check ]
  ret i1 %10
}